target datalayout = "e-m:e-p270:32:32-p271:32:32-p272:64:64-i64:64-i128:128-f80:128-n8:16:32:64-S128"
target triple = "x86_64-pc-linux-gnu"

%struct.Ifd_Man_t_ = type { ptr, i32, i32, ptr, ptr, ptr, ptr, ptr, ptr, ptr }
%struct.Ifd_Obj_t_ = type { i32, [3 x i32] }

@__const.Ifd_ObjPrint_rec.Symb = private unnamed_addr constant [2 x [4 x i8]] [[4 x i8] c"?([<", [4 x i8] c"?)]>"], align 1
@.str.2 = private unnamed_addr constant [2 x i8] c"!\00", align 1
@.str.3 = private unnamed_addr constant [3 x i8] c"%c\00", align 1

; Function Attrs: inlinehint nounwind uwtable
define internal ptr @Ifd_ManObj(ptr noundef %0, i32 noundef %1) #3 {
  %3 = alloca ptr, align 8
  %4 = alloca i32, align 4
  store ptr %0, ptr %3, align 8, !tbaa !3
  store i32 %1, ptr %4, align 4, !tbaa !24
  %5 = load ptr, ptr %3, align 8, !tbaa !3
  %6 = getelementptr inbounds nuw %struct.Ifd_Man_t_, ptr %5, i32 0, i32 0
  %7 = load ptr, ptr %6, align 8, !tbaa !16
  %8 = load i32, ptr %4, align 4, !tbaa !24
  %9 = sext i32 %8 to i64
  %10 = getelementptr inbounds %struct.Ifd_Obj_t_, ptr %7, i64 %9
  ret ptr %10
}

; Function Attrs: inlinehint nounwind uwtable
define internal i32 @Abc_Lit2Var(i32 noundef %0) #3 {
  %2 = alloca i32, align 4
  store i32 %0, ptr %2, align 4, !tbaa !24
  %3 = load i32, ptr %2, align 4, !tbaa !24
  %4 = ashr i32 %3, 1
  ret i32 %4
}

; Function Attrs: inlinehint nounwind uwtable
define internal ptr @Ifd_ManObjFromLit(ptr noundef %0, i32 noundef %1) #3 {
  %3 = alloca ptr, align 8
  %4 = alloca i32, align 4
  store ptr %0, ptr %3, align 8, !tbaa !3
  store i32 %1, ptr %4, align 4, !tbaa !24
  %5 = load ptr, ptr %3, align 8, !tbaa !3
  %6 = load i32, ptr %4, align 4, !tbaa !24
  %7 = call i32 @Abc_Lit2Var(i32 noundef %6)
  %8 = call ptr @Ifd_ManObj(ptr noundef %5, i32 noundef %7)
  ret ptr %8
}

; Function Attrs: inlinehint nounwind uwtable
define internal i32 @Abc_LitNot(i32 noundef %0) #3 {
  %2 = alloca i32, align 4
  store i32 %0, ptr %2, align 4, !tbaa !24
  %3 = load i32, ptr %2, align 4, !tbaa !24
  %4 = xor i32 %3, 1
  ret i32 %4
}

; Function Attrs: inlinehint nounwind uwtable
define internal i32 @Abc_LitIsCompl(i32 noundef %0) #3 {
  %2 = alloca i32, align 4
  store i32 %0, ptr %2, align 4, !tbaa !24
  %3 = load i32, ptr %2, align 4, !tbaa !24
  %4 = and i32 %3, 1
  ret i32 %4
}

; Function Attrs: nounwind uwtable
define void @Ifd_ObjPrint_rec(ptr noundef %0, i32 noundef %1, ptr noundef %2, i32 noundef %3) #0 {
  %5 = alloca ptr, align 8
  %6 = alloca i32, align 4
  %7 = alloca ptr, align 8
  %8 = alloca i32, align 4
  %9 = alloca [2 x [4 x i8]], align 1
  %10 = alloca ptr, align 8
  %11 = alloca i32, align 4
  store ptr %0, ptr %5, align 8, !tbaa !3
  store i32 %1, ptr %6, align 4, !tbaa !24
  store ptr %2, ptr %7, align 8, !tbaa !51
  store i32 %3, ptr %8, align 4, !tbaa !24
  call void @llvm.lifetime.start.p0(i64 8, ptr %9) #12
  call void @llvm.memcpy.p0.p0.i64(ptr align 1 %9, ptr align 1 @__const.Ifd_ObjPrint_rec.Symb, i64 8, i1 false)
  call void @llvm.lifetime.start.p0(i64 8, ptr %10) #12
  %12 = load i32, ptr %6, align 4, !tbaa !24
  %13 = call i32 @Abc_LitIsCompl(i32 noundef %12)
  %14 = icmp ne i32 %13, 0
  br i1 %14, label %15, label %19

15:                                               ; preds = %4
  %16 = call i32 (ptr, ...) @printf(ptr noundef @.str.2)
  %17 = load i32, ptr %6, align 4, !tbaa !24
  %18 = call i32 @Abc_LitNot(i32 noundef %17)
  store i32 %18, ptr %6, align 4, !tbaa !24
  br label %19

19:                                               ; preds = %15, %4
  %20 = load i32, ptr %6, align 4, !tbaa !24
  %21 = icmp eq i32 %20, 2
  br i1 %21, label %22, label %28

22:                                               ; preds = %19
  %23 = load ptr, ptr %7, align 8, !tbaa !51
  %24 = load i32, ptr %23, align 4, !tbaa !24
  %25 = add nsw i32 %24, 1
  store i32 %25, ptr %23, align 4, !tbaa !24
  %26 = add nsw i32 97, %24
  %27 = call i32 (ptr, ...) @printf(ptr noundef @.str.3, i32 noundef %26)
  store i32 1, ptr %11, align 4
  br label %175

28:                                               ; preds = %19
  %29 = load ptr, ptr %5, align 8, !tbaa !3
  %30 = load i32, ptr %6, align 4, !tbaa !24
  %31 = call ptr @Ifd_ManObjFromLit(ptr noundef %29, i32 noundef %30)
  store ptr %31, ptr %10, align 8, !tbaa !52
  %32 = load i32, ptr %8, align 4, !tbaa !24
  %33 = icmp ne i32 %32, 0
  br i1 %33, label %34, label %45

34:                                               ; preds = %28
  %35 = getelementptr inbounds [2 x [4 x i8]], ptr %9, i64 0, i64 0
  %36 = load ptr, ptr %10, align 8, !tbaa !52
  %37 = load i32, ptr %36, align 4
  %38 = lshr i32 %37, 29
  %39 = and i32 %38, 3
  %40 = zext i32 %39 to i64
  %41 = getelementptr inbounds nuw [4 x i8], ptr %35, i64 0, i64 %40
  %42 = load i8, ptr %41, align 1, !tbaa !53
  %43 = sext i8 %42 to i32
  %44 = call i32 (ptr, ...) @printf(ptr noundef @.str.3, i32 noundef %43)
  br label %45

45:                                               ; preds = %34, %28
  %46 = load ptr, ptr %5, align 8, !tbaa !3
  %47 = load ptr, ptr %10, align 8, !tbaa !52
  %48 = getelementptr inbounds nuw %struct.Ifd_Obj_t_, ptr %47, i32 0, i32 1
  %49 = getelementptr inbounds [3 x i32], ptr %48, i64 0, i64 0
  %50 = load i32, ptr %49, align 4, !tbaa !24
  %51 = load ptr, ptr %7, align 8, !tbaa !51
  %52 = load ptr, ptr %10, align 8, !tbaa !52
  %53 = load i32, ptr %52, align 4
  %54 = lshr i32 %53, 29
  %55 = and i32 %54, 3
  %56 = icmp eq i32 %55, 3
  br i1 %56, label %79, label %57

57:                                               ; preds = %45
  %58 = load ptr, ptr %10, align 8, !tbaa !52
  %59 = getelementptr inbounds nuw %struct.Ifd_Obj_t_, ptr %58, i32 0, i32 1
  %60 = getelementptr inbounds [3 x i32], ptr %59, i64 0, i64 0
  %61 = load i32, ptr %60, align 4, !tbaa !24
  %62 = call i32 @Abc_LitIsCompl(i32 noundef %61)
  %63 = icmp ne i32 %62, 0
  br i1 %63, label %79, label %64

64:                                               ; preds = %57
  %65 = load ptr, ptr %10, align 8, !tbaa !52
  %66 = load i32, ptr %65, align 4
  %67 = lshr i32 %66, 29
  %68 = and i32 %67, 3
  %69 = load ptr, ptr %5, align 8, !tbaa !3
  %70 = load ptr, ptr %10, align 8, !tbaa !52
  %71 = getelementptr inbounds nuw %struct.Ifd_Obj_t_, ptr %70, i32 0, i32 1
  %72 = getelementptr inbounds [3 x i32], ptr %71, i64 0, i64 0
  %73 = load i32, ptr %72, align 4, !tbaa !24
  %74 = call ptr @Ifd_ManObjFromLit(ptr noundef %69, i32 noundef %73)
  %75 = load i32, ptr %74, align 4
  %76 = lshr i32 %75, 29
  %77 = and i32 %76, 3
  %78 = icmp ne i32 %68, %77
  br label %79

79:                                               ; preds = %64, %57, %45
  %80 = phi i1 [ true, %57 ], [ true, %45 ], [ %78, %64 ]
  %81 = zext i1 %80 to i32
  call void @Ifd_ObjPrint_rec(ptr noundef %46, i32 noundef %50, ptr noundef %51, i32 noundef %81)
  %82 = load ptr, ptr %5, align 8, !tbaa !3
  %83 = load ptr, ptr %10, align 8, !tbaa !52
  %84 = getelementptr inbounds nuw %struct.Ifd_Obj_t_, ptr %83, i32 0, i32 1
  %85 = getelementptr inbounds [3 x i32], ptr %84, i64 0, i64 1
  %86 = load i32, ptr %85, align 4, !tbaa !24
  %87 = load ptr, ptr %7, align 8, !tbaa !51
  %88 = load ptr, ptr %10, align 8, !tbaa !52
  %89 = load i32, ptr %88, align 4
  %90 = lshr i32 %89, 29
  %91 = and i32 %90, 3
  %92 = icmp eq i32 %91, 3
  br i1 %92, label %115, label %93

93:                                               ; preds = %79
  %94 = load ptr, ptr %10, align 8, !tbaa !52
  %95 = getelementptr inbounds nuw %struct.Ifd_Obj_t_, ptr %94, i32 0, i32 1
  %96 = getelementptr inbounds [3 x i32], ptr %95, i64 0, i64 1
  %97 = load i32, ptr %96, align 4, !tbaa !24
  %98 = call i32 @Abc_LitIsCompl(i32 noundef %97)
  %99 = icmp ne i32 %98, 0
  br i1 %99, label %115, label %100

100:                                              ; preds = %93
  %101 = load ptr, ptr %10, align 8, !tbaa !52
  %102 = load i32, ptr %101, align 4
  %103 = lshr i32 %102, 29
  %104 = and i32 %103, 3
  %105 = load ptr, ptr %5, align 8, !tbaa !3
  %106 = load ptr, ptr %10, align 8, !tbaa !52
  %107 = getelementptr inbounds nuw %struct.Ifd_Obj_t_, ptr %106, i32 0, i32 1
  %108 = getelementptr inbounds [3 x i32], ptr %107, i64 0, i64 1
  %109 = load i32, ptr %108, align 4, !tbaa !24
  %110 = call ptr @Ifd_ManObjFromLit(ptr noundef %105, i32 noundef %109)
  %111 = load i32, ptr %110, align 4
  %112 = lshr i32 %111, 29
  %113 = and i32 %112, 3
  %114 = icmp ne i32 %104, %113
  br label %115

115:                                              ; preds = %100, %93, %79
  %116 = phi i1 [ true, %93 ], [ true, %79 ], [ %114, %100 ]
  %117 = zext i1 %116 to i32
  call void @Ifd_ObjPrint_rec(ptr noundef %82, i32 noundef %86, ptr noundef %87, i32 noundef %117)
  %118 = load ptr, ptr %10, align 8, !tbaa !52
  %119 = getelementptr inbounds nuw %struct.Ifd_Obj_t_, ptr %118, i32 0, i32 1
  %120 = getelementptr inbounds [3 x i32], ptr %119, i64 0, i64 2
  %121 = load i32, ptr %120, align 4, !tbaa !24
  %122 = icmp ne i32 %121, -1
  br i1 %122, label %123, label %160

123:                                              ; preds = %115
  %124 = load ptr, ptr %5, align 8, !tbaa !3
  %125 = load ptr, ptr %10, align 8, !tbaa !52
  %126 = getelementptr inbounds nuw %struct.Ifd_Obj_t_, ptr %125, i32 0, i32 1
  %127 = getelementptr inbounds [3 x i32], ptr %126, i64 0, i64 2
  %128 = load i32, ptr %127, align 4, !tbaa !24
  %129 = load ptr, ptr %7, align 8, !tbaa !51
  %130 = load ptr, ptr %10, align 8, !tbaa !52
  %131 = load i32, ptr %130, align 4
  %132 = lshr i32 %131, 29
  %133 = and i32 %132, 3
  %134 = icmp eq i32 %133, 3
  br i1 %134, label %157, label %135

135:                                              ; preds = %123
  %136 = load ptr, ptr %10, align 8, !tbaa !52
  %137 = getelementptr inbounds nuw %struct.Ifd_Obj_t_, ptr %136, i32 0, i32 1
  %138 = getelementptr inbounds [3 x i32], ptr %137, i64 0, i64 2
  %139 = load i32, ptr %138, align 4, !tbaa !24
  %140 = call i32 @Abc_LitIsCompl(i32 noundef %139)
  %141 = icmp ne i32 %140, 0
  br i1 %141, label %157, label %142

142:                                              ; preds = %135
  %143 = load ptr, ptr %10, align 8, !tbaa !52
  %144 = load i32, ptr %143, align 4
  %145 = lshr i32 %144, 29
  %146 = and i32 %145, 3
  %147 = load ptr, ptr %5, align 8, !tbaa !3
  %148 = load ptr, ptr %10, align 8, !tbaa !52
  %149 = getelementptr inbounds nuw %struct.Ifd_Obj_t_, ptr %148, i32 0, i32 1
  %150 = getelementptr inbounds [3 x i32], ptr %149, i64 0, i64 2
  %151 = load i32, ptr %150, align 4, !tbaa !24
  %152 = call ptr @Ifd_ManObjFromLit(ptr noundef %147, i32 noundef %151)
  %153 = load i32, ptr %152, align 4
  %154 = lshr i32 %153, 29
  %155 = and i32 %154, 3
  %156 = icmp ne i32 %146, %155
  br label %157

157:                                              ; preds = %142, %135, %123
  %158 = phi i1 [ true, %135 ], [ true, %123 ], [ %156, %142 ]
  %159 = zext i1 %158 to i32
  call void @Ifd_ObjPrint_rec(ptr noundef %124, i32 noundef %128, ptr noundef %129, i32 noundef %159)
  br label %160

160:                                              ; preds = %157, %115
  %161 = load i32, ptr %8, align 4, !tbaa !24
  %162 = icmp ne i32 %161, 0
  br i1 %162, label %163, label %174

163:                                              ; preds = %160
  %164 = getelementptr inbounds [2 x [4 x i8]], ptr %9, i64 0, i64 1
  %165 = load ptr, ptr %10, align 8, !tbaa !52
  %166 = load i32, ptr %165, align 4
  %167 = lshr i32 %166, 29
  %168 = and i32 %167, 3
  %169 = zext i32 %168 to i64
  %170 = getelementptr inbounds nuw [4 x i8], ptr %164, i64 0, i64 %169
  %171 = load i8, ptr %170, align 1, !tbaa !53
  %172 = sext i8 %171 to i32
  %173 = call i32 (ptr, ...) @printf(ptr noundef @.str.3, i32 noundef %172)
  br label %174

174:                                              ; preds = %163, %160
  store i32 0, ptr %11, align 4
  br label %175

175:                                              ; preds = %174, %22
  call void @llvm.lifetime.end.p0(i64 8, ptr %10) #12
  call void @llvm.lifetime.end.p0(i64 8, ptr %9) #12
  %176 = load i32, ptr %11, align 4
  switch i32 %176, label %178 [
    i32 0, label %177
    i32 1, label %177
  ]

177:                                              ; preds = %175, %175
  ret void

178:                                              ; preds = %175
  unreachable
}