; Function Attrs: nofree nounwind uwtable
define void @Ifd_ObjPrint_rec(ptr noundef %0, i32 noundef %1, ptr noundef %2, i32 noundef %3) local_unnamed_addr #8 {
  %5 = and i32 %1, 1
  %.not = icmp eq i32 %5, 0
  br i1 %.not, label %8, label %6

6:                                                ; preds = %4
  %putchar = tail call i32 @putchar(i32 33)
  %7 = and i32 %1, -2
  br label %8

8:                                                ; preds = %6, %4
  %.0 = phi i32 [ %7, %6 ], [ %1, %4 ]
  %9 = icmp eq i32 %.0, 2
  br i1 %9, label %10, label %14

10:                                               ; preds = %8
  %11 = load i32, ptr %2, align 4, !tbaa !37
  %12 = add nsw i32 %11, 1
  store i32 %12, ptr %2, align 4, !tbaa !37
  %13 = add nsw i32 %11, 97
  br label %.sink.split

14:                                               ; preds = %8
  %.val = load ptr, ptr %0, align 8, !tbaa !17
  %15 = ashr i32 %.0, 1
  %16 = sext i32 %15 to i64
  %17 = getelementptr inbounds %struct.Ifd_Obj_t_, ptr %.val, i64 %16
  %.not35 = icmp eq i32 %3, 0
  br i1 %.not35, label %26, label %18

18:                                               ; preds = %14
  %19 = load i32, ptr %17, align 4
  %20 = lshr i32 %19, 29
  %21 = and i32 %20, 3
  %22 = zext nneg i32 %21 to i64
  %23 = getelementptr inbounds nuw [4 x i8], ptr @__const.Ifd_ObjPrint_rec.Symb, i64 0, i64 %22
  %24 = load i8, ptr %23, align 1, !tbaa !44
  %25 = sext i8 %24 to i32
  %putchar36 = tail call i32 @putchar(i32 %25)
  br label %26

26:                                               ; preds = %18, %14
  %27 = getelementptr inbounds nuw i8, ptr %17, i64 4
  %28 = load i32, ptr %27, align 4, !tbaa !37
  %29 = load i32, ptr %17, align 4
  %30 = and i32 %29, 1610612736
  %31 = icmp ne i32 %30, 1610612736
  %32 = and i32 %28, 1
  %.not37 = icmp eq i32 %32, 0
  %or.cond = select i1 %31, i1 %.not37, i1 false
  br i1 %or.cond, label %33, label %42

33:                                               ; preds = %26
  %.val43 = load ptr, ptr %0, align 8, !tbaa !17
  %34 = ashr exact i32 %28, 1
  %35 = sext i32 %34 to i64
  %36 = getelementptr inbounds %struct.Ifd_Obj_t_, ptr %.val43, i64 %35
  %37 = load i32, ptr %36, align 4
  %38 = xor i32 %37, %29
  %39 = and i32 %38, 1610612736
  %40 = icmp ne i32 %39, 0
  %41 = zext i1 %40 to i32
  br label %42

42:                                               ; preds = %33, %26
  %43 = phi i32 [ 1, %26 ], [ %41, %33 ]
  tail call void @Ifd_ObjPrint_rec(ptr noundef nonnull %0, i32 noundef %28, ptr noundef %2, i32 noundef %43)
  %44 = getelementptr inbounds nuw i8, ptr %17, i64 8
  %45 = load i32, ptr %44, align 4, !tbaa !37
  %46 = load i32, ptr %17, align 4
  %47 = and i32 %46, 1610612736
  %48 = icmp ne i32 %47, 1610612736
  %49 = and i32 %45, 1
  %.not38 = icmp eq i32 %49, 0
  %or.cond46 = select i1 %48, i1 %.not38, i1 false
  br i1 %or.cond46, label %50, label %59

50:                                               ; preds = %42
  %.val44 = load ptr, ptr %0, align 8, !tbaa !17
  %51 = ashr exact i32 %45, 1
  %52 = sext i32 %51 to i64
  %53 = getelementptr inbounds %struct.Ifd_Obj_t_, ptr %.val44, i64 %52
  %54 = load i32, ptr %53, align 4
  %55 = xor i32 %54, %46
  %56 = and i32 %55, 1610612736
  %57 = icmp ne i32 %56, 0
  %58 = zext i1 %57 to i32
  br label %59

59:                                               ; preds = %50, %42
  %60 = phi i32 [ 1, %42 ], [ %58, %50 ]
  tail call void @Ifd_ObjPrint_rec(ptr noundef nonnull %0, i32 noundef %45, ptr noundef %2, i32 noundef %60)
  %61 = getelementptr inbounds nuw i8, ptr %17, i64 12
  %62 = load i32, ptr %61, align 4, !tbaa !37
  %.not39 = icmp eq i32 %62, -1
  br i1 %.not39, label %79, label %63

63:                                               ; preds = %59
  %64 = load i32, ptr %17, align 4
  %65 = and i32 %64, 1610612736
  %66 = icmp ne i32 %65, 1610612736
  %67 = and i32 %62, 1
  %.not40 = icmp eq i32 %67, 0
  %or.cond47 = and i1 %.not40, %66
  br i1 %or.cond47, label %68, label %77

68:                                               ; preds = %63
  %.val45 = load ptr, ptr %0, align 8, !tbaa !17
  %69 = ashr exact i32 %62, 1
  %70 = sext i32 %69 to i64
  %71 = getelementptr inbounds %struct.Ifd_Obj_t_, ptr %.val45, i64 %70
  %72 = load i32, ptr %71, align 4
  %73 = xor i32 %72, %64
  %74 = and i32 %73, 1610612736
  %75 = icmp ne i32 %74, 0
  %76 = zext i1 %75 to i32
  br label %77

77:                                               ; preds = %68, %63
  %78 = phi i32 [ 1, %63 ], [ %76, %68 ]
  tail call void @Ifd_ObjPrint_rec(ptr noundef nonnull %0, i32 noundef %62, ptr noundef %2, i32 noundef %78)
  br label %79

79:                                               ; preds = %77, %59
  br i1 %.not35, label %88, label %80

80:                                               ; preds = %79
  %81 = load i32, ptr %17, align 4
  %82 = lshr i32 %81, 29
  %83 = and i32 %82, 3
  %84 = zext nneg i32 %83 to i64
  %85 = getelementptr inbounds nuw [4 x i8], ptr getelementptr inbounds nuw (i8, ptr @__const.Ifd_ObjPrint_rec.Symb, i64 4), i64 0, i64 %84
  %86 = load i8, ptr %85, align 1, !tbaa !44
  %87 = sext i8 %86 to i32
  br label %.sink.split

.sink.split:                                      ; preds = %10, %80
  %.sink = phi i32 [ %87, %80 ], [ %13, %10 ]
  %putchar41 = tail call i32 @putchar(i32 %.sink)
  br label %88

88:                                               ; preds = %.sink.split, %79
  ret void
}